; Function Attrs: nounwind uwtable
define internal ptr @array_array_buffer_info(ptr noundef readonly captures(none) %0, ptr readnone captures(none) %1) #0 {
  %3 = tail call ptr @PyTuple_New(i64 noundef 2) #11
  %.not.i = icmp eq ptr %3, null
  br i1 %.not.i, label %array_array_buffer_info_impl.exit, label %4

4:                                                ; preds = %2
  %5 = getelementptr inbounds nuw i8, ptr %0, i64 24
  %6 = load ptr, ptr %5, align 8, !tbaa !53
  %7 = tail call ptr @PyLong_FromVoidPtr(ptr noundef %6) #11
  %8 = icmp eq ptr %7, null
  br i1 %8, label %9, label %15

9:                                                ; preds = %4
  %10 = load i32, ptr %3, align 8, !tbaa !17
  %.not.i16.i = icmp sgt i32 %10, -1
  br i1 %.not.i16.i, label %11, label %array_array_buffer_info_impl.exit

11:                                               ; preds = %9
  %12 = add nsw i32 %10, -1
  store i32 %12, ptr %3, align 8, !tbaa !17
  %13 = icmp eq i32 %12, 0
  br i1 %13, label %14, label %array_array_buffer_info_impl.exit

14:                                               ; preds = %11
  tail call void @_Py_Dealloc(ptr noundef nonnull %3) #11
  br label %array_array_buffer_info_impl.exit

15:                                               ; preds = %4
  %16 = getelementptr inbounds nuw i8, ptr %3, i64 24
  store ptr %7, ptr %16, align 8, !tbaa !18
  %17 = getelementptr i8, ptr %0, i64 16
  %.val.i = load i64, ptr %17, align 8, !tbaa !40
  %18 = tail call ptr @PyLong_FromSsize_t(i64 noundef %.val.i) #11
  %19 = icmp eq ptr %18, null
  br i1 %19, label %20, label %26

20:                                               ; preds = %15
  %21 = load i32, ptr %3, align 8, !tbaa !17
  %.not.i.i = icmp sgt i32 %21, -1
  br i1 %.not.i.i, label %22, label %array_array_buffer_info_impl.exit

22:                                               ; preds = %20
  %23 = add nsw i32 %21, -1
  store i32 %23, ptr %3, align 8, !tbaa !17
  %24 = icmp eq i32 %23, 0
  br i1 %24, label %25, label %array_array_buffer_info_impl.exit

25:                                               ; preds = %22
  tail call void @_Py_Dealloc(ptr noundef nonnull %3) #11
  br label %array_array_buffer_info_impl.exit

26:                                               ; preds = %15
  %27 = getelementptr i8, ptr %3, i64 32
  store ptr %18, ptr %27, align 8, !tbaa !18
  br label %array_array_buffer_info_impl.exit

array_array_buffer_info_impl.exit:                ; preds = %2, %9, %11, %14, %20, %22, %25, %26
  %.0.i = phi ptr [ %3, %26 ], [ null, %2 ], [ null, %9 ], [ null, %11 ], [ null, %14 ], [ null, %20 ], [ null, %22 ], [ null, %25 ]
  ret ptr %.0.i
}